(dp0
S'TORCH'
p1
S'FLASHLIGHT(?=[SD]?)'
p2
sS'IMMUNISING'
p3
S'IMMUNIZING(?=[SD]?)'
p4
sS'FERTILISER'
p5
S'FERTILIZER(?=[SD]?)'
p6
sS'PETROL'
p7
S'GASOLINE(?=[SD]?)'
p8
sS'CROSSLINKING'
p9
S'CROSS-LINKING(?=[SD]?)'
p10
sS'CALIBRE'
p11
S'CALIBER(?=[SD]?)'
p12
sS'LIFT'
p13
S'ELEVATOR(?=[SD]?)'
p14
sS'ARMOURING'
p15
S'ARMORING(?=[SD]?)'
p16
sS'ANALYSER'
p17
S'ANALYZER(?=[SD]?)'
p18
sS'DEODORISING'
p19
S'DEODORIZING(?=[SD]?)'
p20
sS'CAUTERISING'
p21
S'CAUTERIZING(?=[SD]?)'
p22
sS'MANOEUVRING'
p23
S'MANEUVERING(?=[SD]?)'
p24
sS'MALLEABILISING'
p25
S'MALLEABLEIZING(?=[SD]?)'
p26
sS'COLOUR'
p27
S'COLOR(?=[SD]?)'
p28
sS'CENTRING'
p29
S'CENTERING(?=[SD]?)'
p30
sS'ISOMERISING'
p31
S'ISOMERIZING(?=[SD]?)'
p32
sS'NEBULISER'
p33
S'NEBULIZER(?=[SD]?)'
p34
sS'LOCALISING'
p35
S'LOCALIZING(?=[SD]?)'
p36
sS'LANDMINE'
p37
S'LAND MINE(?=[SD]?)'
p38
sS'DECOLOURISING'
p39
S'DECOLORIZING(?=[SD]?)'
p40
sS'IMMOBILISE'
p41
S'IMMOBILIZE(?=[SD]?)'
p42
sS'STERILISATION'
p43
S'STERILIZATION(?=[SD]?)'
p44
sS'DYKE'
p45
S'DIKE(?=[SD]?)'
p46
sS'GRAPHITISING'
p47
S'GRAPHITIZING(?=[SD]?)'
p48
sS'OZONISING'
p49
S'OZONIZING(?=[SD]?)'
p50
sS'SULPHITE'
p51
S'SULFITE(?=[SD]?)'
p52
sS'PULVERISING'
p53
S'PULVERIZING(?=[SD]?)'
p54
sS'GALVANISING'
p55
S'GALVANIZING(?=[SD]?)'
p56
sS'IONISE'
p57
S'IONIZE(?=[SD]?)'
p58
sS'POLARISE'
p59
S'POLARIZE(?=[SD]?)'
p60
sS'MACHETE'
p61
S'MATCHETE(?=[SD]?)'
p62
sS'CRYSTALLISING'
p63
S'CRYSTALLIZING(?=[SD]?)'
p64
sS'MAGNETISING'
p65
S'MAGNETIZING(?=[SD]?)'
p66
sS'VULCANISING'
p67
S'VULCANIZING(?=[SD]?)'
p68
sS'MERCERISING'
p69
S'MERCERIZING(?=[SD]?)'
p70
sS'FERTILISATION'
p71
S'FERTILIZATION(?=[SD]?)'
p72
sS'MOLLUSC'
p73
S'MOLLUSK(?=[SD]?)'
p74
sS'FLAVOURING'
p75
S'FLAVORING(?=[SD]?)'
p76
sS'DOWNPIPE'
p77
S'DOWNSPOUT(?=[SD]?)'
p78
sS'ANODISING'
p79
S'ANODIZING(?=[SD]?)'
p80
sS'CAUTERISATION'
p81
S'CAUTERIZATION(?=[SD]?)'
p82
sS'COLOURING'
p83
S'COLORING(?=[SD]?)'
p84
sS'PLASTICISER'
p85
S'PLASTICIZER(?=[SD]?)'
p86
sS'ANAESTHETIC'
p87
S'ANESTHETIC(?=[SD]?)'
p88
sS'FIBRE'
p89
S'FIBER(?=[SD]?)'
p90
sS'SYNTHESISING'
p91
S'SYNTHESIZING(?=[SD]?)'
p92
sS'ODOUR'
p93
S'ODOR(?=[SD]?)'
p94
sS'ALUMINIUM'
p95
S'ALUMINUM(?=[SD]?)'
p96
sS'SUBSIDISING'
p97
S'SUBSIDIZING(?=[SD]?)'
p98
sS'MITRE'
p99
S'MITER(?=[SD]?)'
p100
sS'MULTICOLOUR'
p101
S'MULTICOLOR(?=[SD]?)'
p102
sS'CALLIPER'
p103
S'CALIPER(?=[SD]?)'
p104
sS'FLUIDISING'
p105
S'FLUIDIZING(?=[SD]?)'
p106
sS'ECONOMISER'
p107
S'ECONOMIZER(?=[SD]?)'
p108
sS'TYRE'
p109
S'TIRE(?=[SD]?)'
p110
sS'MOULDING'
p111
S'MOLDING(?=[SD]?)'
p112
sS'DESENSITISER'
p113
S'DESENSITIZER(?=[SD]?)'
p114
sS'MAGNETISATION'
p115
S'MAGNETIZATION(?=[SD]?)'
p116
sS'IONISATION'
p117
S'IONIZATION(?=[SD]?)'
p118
sS'HOMOGENISING'
p119
S'HOMOGENIZING(?=[SD]?)'
p120
sS'MINIMISING'
p121
S'MINIMIZING(?=[SD]?)'
p122
sS'SECATEUR'
p123
S'PRUNING SHEAR(?=[SD]?)'
p124
sS'CARBONISATION'
p125
S'CARBONIZATION(?=[SD]?)'
p126
sS'EQUALISING'
p127
S'EQUALIZING(?=[SD]?)'
p128
sS'DEPOLYMERISING'
p129
S'DEPOLYMERIZING(?=[SD]?)'
p130
sS'AEROPLANE'
p131
S'AIRPLANE(?=[SD]?)'
p132
sS'DEMAGNETISING'
p133
S'DEMAGNETIZING(?=[SD]?)'
p134
sS'SENSITISING'
p135
S'SENSITIZING(?=[SD]?)'
p136
sS'TABLETTING'
p137
S'TABLETING(?=[SD]?)'
p138
sS'VAPOUR'
p139
S'VAPOR(?=[SD]?)'
p140
sS'POLYMERISE'
p141
S'POLYMERIZE(?=[SD]?)'
p142
sS'ANALYSE'
p143
S'ANALYZE(?=[SD]?)'
p144
sS'HARBOUR'
p145
S'HARBOR(?=[SD]?)'
p146
sS'POLYMERISABLE'
p147
S'POLYMERIZABLE(?=[SD]?)'
p148
sS'MINERALISATION'
p149
S'MINERALIZATION(?=[SD]?)'
p150
sS'PASTEURISING'
p151
S'PASTEURIZING(?=[SD]?)'
p152
sS'GYNAECOLOGY'
p153
S'GYNECOLOGY(?=[SD]?)'
p154
sS'CYCLISATION'
p155
S'CYCLIZATION(?=[SD]?)'
p156
sS'CENTRE'
p157
S'CENTER(?=[SD]?)'
p158
sS'STABILISER'
p159
S'STABILIZER(?=[SD]?)'
p160
sS'UNAUTHORISE'
p161
S'UNAUTHORIZE(?=[SD]?)'
p162
sS'WINDSCREEN'
p163
S'WINDSHIELD(?=[SD]?)'
p164
sS'SYNCHRONISATION'
p165
S'SYNCHRONIZATION(?=[SD]?)'
p166
sS'PLOUGHING'
p167
S'PLOWING(?=[SD]?)'
p168
sS'NEUTRALISATION'
p169
S'NEUTRALIZATION(?=[SD]?)'
p170
sS'POLARISATION'
p171
S'POLARIZATION(?=[SD]?)'
p172
sS'TRAM'
p173
S'STREETCAR(?=[SD]?)'
p174
sS'PARLOUR'
p175
S'PARLOR(?=[SD]?)'
p176
sS'NAPPY'
p177
S'DIAPER(?=[SD]?)'
p178
sS'OPTIMISATION'
p179
S'OPTIMIZATION(?=[SD]?)'
p180
sS'ANALYSING'
p181
S'ANALYZING(?=[SD]?)'
p182
sS'FERTILISING'
p183
S'FERTILIZING(?=[SD]?)'
p184
sS'RECOGNISING'
p185
S'RECOGNIZING(?=[SD]?)'
p186
sS'BISCUIT'
p187
S'COOKIE(?=[SD]?)'
p188
sS'PRACTISING'
p189
S'PRACTICING(?=[SD]?)'
p190
sS'ANAESTHETISING'
p191
S'ANESTHETIZING(?=[SD]?)'
p192
sS'CARBURETTOR'
p193
S'CARBURETOR(?=[SD]?)'
p194
sS'DESULFURISING'
p195
S'DESULFURIZING(?=[SD]?)'
p196
sS'ATOMISING'
p197
S'ATOMIZING(?=[SD]?)'
p198
sS'JEWELLERY'
p199
S'JEWELRY(?=[SD]?)'
p200
sS'DEPOLARISING'
p201
S'DEPOLARIZING(?=[SD]?)'
p202
sS'NEUTRALISING'
p203
S'NEUTRALIZING(?=[SD]?)'
p204
sS'PYJAMA'
p205
S'PAJAMA(?=[SD]?)'
p206
sS'SELVEDGE'
p207
S'SELVAGE(?=[SD]?)'
p208
sS'SULPHUR'
p209
S'SULFUR(?=[SD]?)'
p210
sS'ARMOUR'
p211
S'ARMOR(?=[SD]?)'
p212
sS'ENCYCLOPAEDIA'
p213
S'ENCYCLOPEDIA(?=[SD]?)'
p214
sS'HAEMORRHOID'
p215
S'HEMORRHOID(?=[SD]?)'
p216
sS'FLUIDISE'
p217
S'FLUIDIZE(?=[SD]?)'
p218
sS'METALLISING'
p219
S'METALIZING(?=[SD]?)'
p220
sS'SULPHATE'
p221
S'SULFATE(?=[SD]?)'
p222
sS'FIBREGLASS'
p223
S'FIBERGLASS(?=ES?)'
p224
sS'PROGRAMME'
p225
S'PROGRAM(?=[SD]?)'
p226
sS'MOULD'
p227
S'MOLD(?=[SD]?)'
p228
sS'THEATRE'
p229
S'THEATER(?=[SD]?)'
p230
sS'OXIDISING'
p231
S'OXIDIZING(?=[SD]?)'
p232
sS'METACENTRE'
p233
S'METACENTER(?=[SD]?)'
p234
sS'VAPORISER'
p235
S'VAPORIZER(?=[SD]?)'
p236
sS'ATOMISER'
p237
S'ATOMIZER(?=[SD]?)'
p238
s.